target datalayout = "e-m:e-p270:32:32-p271:32:32-p272:64:64-i64:64-i128:128-f80:128-n8:16:32:64-S128"
target triple = "x86_64-pc-linux-gnu"

%struct.___itt_id = type { i64, i64, i64 }
%"class.cv::utils::trace::details::Region::Impl" = type { ptr, ptr, ptr, i32, i32, i64, i64, i32, i8, %struct.___itt_id }
%"class.cv::utils::trace::details::Region" = type <{ ptr, i32, [4 x i8] }>
%struct.___itt_domain = type { i32, ptr, ptr, i32, ptr, ptr }

@_ZN2cv5utils5trace7detailsL6domainE = internal global ptr null, align 8
@__itt_id_destroy_ptr__3_0 = external global ptr, align 8

; Function Attrs: mustprogress nounwind uwtable
define void @_ZN2cv5utils5trace7details6Region4ImplD2Ev(ptr noundef nonnull align 8 dereferenceable(80) %0) unnamed_addr #8 align 2 personality ptr @__gxx_personality_v0 {
  %2 = alloca ptr, align 8
  %3 = alloca %struct.___itt_id, align 8
  store ptr %0, ptr %2, align 8, !tbaa !59
  %4 = load ptr, ptr %2, align 8
  %5 = getelementptr inbounds nuw %"class.cv::utils::trace::details::Region::Impl", ptr %4, i32 0, i32 8
  %6 = load i8, ptr %5, align 4, !tbaa !90, !range !26, !noundef !27
  %7 = trunc i8 %6 to i1
  br i1 %7, label %8, label %31

8:                                                ; preds = %1
  %9 = load ptr, ptr @_ZN2cv5utils5trace7detailsL6domainE, align 8, !tbaa !28
  %10 = icmp eq ptr %9, null
  br i1 %10, label %11, label %12

11:                                               ; preds = %8
  br label %29

12:                                               ; preds = %8
  %13 = load ptr, ptr @_ZN2cv5utils5trace7detailsL6domainE, align 8, !tbaa !28
  %14 = getelementptr inbounds nuw %struct.___itt_domain, ptr %13, i32 0, i32 0
  %15 = load volatile i32, ptr %14, align 8, !tbaa !96
  %16 = icmp ne i32 %15, 0
  br i1 %16, label %18, label %17

17:                                               ; preds = %12
  br label %28

18:                                               ; preds = %12
  %19 = load ptr, ptr @__itt_id_destroy_ptr__3_0, align 8, !tbaa !17
  %20 = icmp ne ptr %19, null
  br i1 %20, label %22, label %21

21:                                               ; preds = %18
  br label %27

22:                                               ; preds = %18
  %23 = load ptr, ptr @__itt_id_destroy_ptr__3_0, align 8, !tbaa !17
  %24 = load ptr, ptr @_ZN2cv5utils5trace7detailsL6domainE, align 8, !tbaa !28
  %25 = getelementptr inbounds nuw %"class.cv::utils::trace::details::Region::Impl", ptr %4, i32 0, i32 9
  call void @llvm.memcpy.p0.p0.i64(ptr align 8 %3, ptr align 8 %25, i64 24, i1 false), !tbaa.struct !91
  invoke void %23(ptr noundef %24, ptr noundef byval(%struct.___itt_id) align 8 %3)
          to label %26 unwind label %35

26:                                               ; preds = %22
  br label %27

27:                                               ; preds = %26, %21
  br label %28

28:                                               ; preds = %27, %17
  br label %29

29:                                               ; preds = %28, %11
  %30 = getelementptr inbounds nuw %"class.cv::utils::trace::details::Region::Impl", ptr %4, i32 0, i32 8
  store i8 0, ptr %30, align 4, !tbaa !90
  br label %31

31:                                               ; preds = %29, %1
  %32 = getelementptr inbounds nuw %"class.cv::utils::trace::details::Region::Impl", ptr %4, i32 0, i32 1
  %33 = load ptr, ptr %32, align 8, !tbaa !93
  %34 = getelementptr inbounds nuw %"class.cv::utils::trace::details::Region", ptr %33, i32 0, i32 0
  store ptr null, ptr %34, align 8, !tbaa !94
  ret void

35:                                               ; preds = %22
  %36 = landingpad { ptr, i32 }
          catch ptr null
  %37 = extractvalue { ptr, i32 } %36, 0
  call void @__clang_call_terminate(ptr %37) #24
  unreachable
}