; Function Attrs: mustprogress nounwind uwtable
define void @_ZN2cv5utils5trace7details6Region4ImplD2Ev(ptr noundef nonnull align 8 captures(none) dereferenceable(80) %0) unnamed_addr #8 align 2 personality ptr @__gxx_personality_v0 {
  %2 = getelementptr inbounds nuw i8, ptr %0, i64 52
  %3 = load i8, ptr %2, align 4, !tbaa !72, !range !21, !noundef !22
  %4 = trunc nuw i8 %3 to i1
  br i1 %4, label %5, label %16

5:                                                ; preds = %1
  %6 = load ptr, ptr @_ZN2cv5utils5trace7detailsL6domainE, align 8, !tbaa !23
  %7 = icmp eq ptr %6, null
  br i1 %7, label %15, label %8

8:                                                ; preds = %5
  %9 = load volatile i32, ptr %6, align 8, !tbaa !77
  %10 = icmp ne i32 %9, 0
  %11 = load ptr, ptr @__itt_id_destroy_ptr__3_0, align 8
  %12 = icmp ne ptr %11, null
  %or.cond = select i1 %10, i1 %12, i1 false
  br i1 %or.cond, label %13, label %15

13:                                               ; preds = %8
  %14 = getelementptr inbounds nuw i8, ptr %0, i64 56
  invoke void %11(ptr noundef nonnull %6, ptr noundef nonnull byval(%struct.___itt_id) align 8 %14)
          to label %15 unwind label %19

15:                                               ; preds = %8, %13, %5
  store i8 0, ptr %2, align 4, !tbaa !72
  br label %16

16:                                               ; preds = %15, %1
  %17 = getelementptr inbounds nuw i8, ptr %0, i64 8
  %18 = load ptr, ptr %17, align 8, !tbaa !79
  store ptr null, ptr %18, align 8, !tbaa !73
  ret void

19:                                               ; preds = %13
  %20 = landingpad { ptr, i32 }
          catch ptr null
  %21 = extractvalue { ptr, i32 } %20, 0
  tail call void @__clang_call_terminate(ptr %21) #28
  unreachable
}